target datalayout = "e-m:e-p270:32:32-p271:32:32-p272:64:64-i64:64-i128:128-f80:128-n8:16:32:64-S128"
target triple = "x86_64-pc-linux-gnu"

%struct._zval_struct = type { %union._zend_value, %union.anon.0, %union.anon.3 }
%union._zend_value = type { i64 }
%union.anon.0 = type { i32 }
%union.anon.3 = type { i32 }
%struct._zend_refcounted_h = type { i32, %union.anon }
%union.anon = type { i32 }
%struct.dom_xpath_object = type { %struct.php_dom_xpath_callbacks, i8, %struct._dom_object }
%struct.php_dom_xpath_callbacks = type { ptr, ptr, ptr }
%struct._dom_object = type { ptr, ptr, ptr, %struct._zend_object }
%struct._zend_object = type { %struct._zend_refcounted_h, i32, i32, ptr, ptr, ptr, [1 x %struct._zval_struct] }

; Function Attrs: inlinehint nounwind uwtable
define internal ptr @php_xpath_obj_from_dom_obj(ptr noundef %0) #2 {
  %2 = alloca ptr, align 8
  store ptr %0, ptr %2, align 8, !tbaa !63
  %3 = load ptr, ptr %2, align 8, !tbaa !63
  %4 = getelementptr inbounds i8, ptr %3, i64 -32
  ret ptr %4
}

; Function Attrs: nounwind uwtable
define hidden i32 @dom_xpath_register_node_ns_read(ptr noundef %0, ptr noundef %1) #0 {
  %3 = alloca ptr, align 8
  %4 = alloca ptr, align 8
  store ptr %0, ptr %3, align 8, !tbaa !63
  store ptr %1, ptr %4, align 8, !tbaa !29
  br label %5

5:                                                ; preds = %2
  %6 = load ptr, ptr %3, align 8, !tbaa !63
  %7 = call ptr @php_xpath_obj_from_dom_obj(ptr noundef %6)
  %8 = getelementptr inbounds nuw %struct.dom_xpath_object, ptr %7, i32 0, i32 1
  %9 = load i8, ptr %8, align 8, !tbaa !95, !range !93, !noundef !94
  %10 = trunc i8 %9 to i1
  %11 = select i1 %10, i32 3, i32 2
  %12 = load ptr, ptr %4, align 8, !tbaa !29
  %13 = getelementptr inbounds nuw %struct._zval_struct, ptr %12, i32 0, i32 1
  store i32 %11, ptr %13, align 8, !tbaa !35
  br label %14

14:                                               ; preds = %5
  ret i32 0
}