; Function Attrs: mustprogress nofree norecurse nosync nounwind willreturn memory(argmem: readwrite) uwtable
define hidden noundef i32 @dom_xpath_register_node_ns_read(ptr noundef readonly captures(none) %0, ptr noundef writeonly captures(none) initializes((8, 12)) %1) local_unnamed_addr #3 {
  %3 = getelementptr inbounds i8, ptr %0, i64 -8
  %4 = load i8, ptr %3, align 8, !tbaa !83, !range !81, !noundef !82
  %5 = trunc nuw i8 %4 to i1
  %6 = select i1 %5, i32 3, i32 2
  %7 = getelementptr inbounds nuw i8, ptr %1, i64 8
  store i32 %6, ptr %7, align 8, !tbaa !21
  ret i32 0
}